	.file	"asm-offsets.c"
	.text
.Ltext0:
	.file 0 "/home/cheyh/projs/MyOS2/build/mykernel" "/home/cheyh/projs/MyOS2/mykernel/arch/x86_64/kbuild/asm-offsets.c"
	.section	.text.main,"ax",@progbits
	.globl	main
	.type	main, @function
main:
.LFB131:
	.file 1 "/home/cheyh/projs/MyOS2/mykernel/arch/x86_64/kbuild/asm-offsets_64.c"
	.loc 1 15 1
	.cfi_startproc
	endbr64
	pushq	%rbp
	.cfi_def_cfa_offset 16
	.cfi_offset 6, -16
	movq	%rsp, %rbp
	.cfi_def_cfa_register 6
.L3:
	leaq	.L3(%rip), %rax
	movabsq	$_GLOBAL_OFFSET_TABLE_-.L3, %r11
	addq	%r11, %rax
	.loc 1 31 2
#APP
# 31 "/home/cheyh/projs/MyOS2/mykernel/arch/x86_64/kbuild/asm-offsets_64.c" 1
	
.ascii "->pt_regs_bx $40 offsetof(struct pt_regs, bx)"
# 0 "" 2
	.loc 1 32 2
# 32 "/home/cheyh/projs/MyOS2/mykernel/arch/x86_64/kbuild/asm-offsets_64.c" 1
	
.ascii "->pt_regs_cx $88 offsetof(struct pt_regs, cx)"
# 0 "" 2
	.loc 1 33 2
# 33 "/home/cheyh/projs/MyOS2/mykernel/arch/x86_64/kbuild/asm-offsets_64.c" 1
	
.ascii "->pt_regs_dx $96 offsetof(struct pt_regs, dx)"
# 0 "" 2
	.loc 1 34 2
# 34 "/home/cheyh/projs/MyOS2/mykernel/arch/x86_64/kbuild/asm-offsets_64.c" 1
	
.ascii "->pt_regs_sp $160 offsetof(struct pt_regs, sp)"
# 0 "" 2
	.loc 1 35 2
# 35 "/home/cheyh/projs/MyOS2/mykernel/arch/x86_64/kbuild/asm-offsets_64.c" 1
	
.ascii "->pt_regs_bp $32 offsetof(struct pt_regs, bp)"
# 0 "" 2
	.loc 1 36 2
# 36 "/home/cheyh/projs/MyOS2/mykernel/arch/x86_64/kbuild/asm-offsets_64.c" 1
	
.ascii "->pt_regs_si $104 offsetof(struct pt_regs, si)"
# 0 "" 2
	.loc 1 37 2
# 37 "/home/cheyh/projs/MyOS2/mykernel/arch/x86_64/kbuild/asm-offsets_64.c" 1
	
.ascii "->pt_regs_di $112 offsetof(struct pt_regs, di)"
# 0 "" 2
	.loc 1 38 2
# 38 "/home/cheyh/projs/MyOS2/mykernel/arch/x86_64/kbuild/asm-offsets_64.c" 1
	
.ascii "->pt_regs_r8 $72 offsetof(struct pt_regs, r8)"
# 0 "" 2
	.loc 1 39 2
# 39 "/home/cheyh/projs/MyOS2/mykernel/arch/x86_64/kbuild/asm-offsets_64.c" 1
	
.ascii "->pt_regs_r9 $64 offsetof(struct pt_regs, r9)"
# 0 "" 2
	.loc 1 40 2
# 40 "/home/cheyh/projs/MyOS2/mykernel/arch/x86_64/kbuild/asm-offsets_64.c" 1
	
.ascii "->pt_regs_r10 $56 offsetof(struct pt_regs, r10)"
# 0 "" 2
	.loc 1 41 2
# 41 "/home/cheyh/projs/MyOS2/mykernel/arch/x86_64/kbuild/asm-offsets_64.c" 1
	
.ascii "->pt_regs_r11 $48 offsetof(struct pt_regs, r11)"
# 0 "" 2
	.loc 1 42 2
# 42 "/home/cheyh/projs/MyOS2/mykernel/arch/x86_64/kbuild/asm-offsets_64.c" 1
	
.ascii "->pt_regs_r12 $24 offsetof(struct pt_regs, r12)"
# 0 "" 2
	.loc 1 43 2
# 43 "/home/cheyh/projs/MyOS2/mykernel/arch/x86_64/kbuild/asm-offsets_64.c" 1
	
.ascii "->pt_regs_r13 $16 offsetof(struct pt_regs, r13)"
# 0 "" 2
	.loc 1 44 2
# 44 "/home/cheyh/projs/MyOS2/mykernel/arch/x86_64/kbuild/asm-offsets_64.c" 1
	
.ascii "->pt_regs_r14 $8 offsetof(struct pt_regs, r14)"
# 0 "" 2
	.loc 1 45 2
# 45 "/home/cheyh/projs/MyOS2/mykernel/arch/x86_64/kbuild/asm-offsets_64.c" 1
	
.ascii "->pt_regs_r15 $0 offsetof(struct pt_regs, r15)"
# 0 "" 2
	.loc 1 46 2
# 46 "/home/cheyh/projs/MyOS2/mykernel/arch/x86_64/kbuild/asm-offsets_64.c" 1
	
.ascii "->pt_regs_flags $152 offsetof(struct pt_regs, flags)"
# 0 "" 2
	.loc 1 48 2
# 48 "/home/cheyh/projs/MyOS2/mykernel/arch/x86_64/kbuild/asm-offsets_64.c" 1
	
.ascii "->"
# 0 "" 2
	.loc 1 51 2
# 51 "/home/cheyh/projs/MyOS2/mykernel/arch/x86_64/kbuild/asm-offsets_64.c" 1
	
.ascii "->R15 $0 offsetof(struct pt_regs, r15)"
# 0 "" 2
	.loc 1 52 2
# 52 "/home/cheyh/projs/MyOS2/mykernel/arch/x86_64/kbuild/asm-offsets_64.c" 1
	
.ascii "->R14 $8 offsetof(struct pt_regs, r14)"
# 0 "" 2
	.loc 1 53 2
# 53 "/home/cheyh/projs/MyOS2/mykernel/arch/x86_64/kbuild/asm-offsets_64.c" 1
	
.ascii "->R13 $16 offsetof(struct pt_regs, r13)"
# 0 "" 2
	.loc 1 54 2
# 54 "/home/cheyh/projs/MyOS2/mykernel/arch/x86_64/kbuild/asm-offsets_64.c" 1
	
.ascii "->R12 $24 offsetof(struct pt_regs, r12)"
# 0 "" 2
	.loc 1 55 2
# 55 "/home/cheyh/projs/MyOS2/mykernel/arch/x86_64/kbuild/asm-offsets_64.c" 1
	
.ascii "->RBP $32 offsetof(struct pt_regs, bp)"
# 0 "" 2
	.loc 1 56 2
# 56 "/home/cheyh/projs/MyOS2/mykernel/arch/x86_64/kbuild/asm-offsets_64.c" 1
	
.ascii "->RBX $40 offsetof(struct pt_regs, bx)"
# 0 "" 2
	.loc 1 57 2
# 57 "/home/cheyh/projs/MyOS2/mykernel/arch/x86_64/kbuild/asm-offsets_64.c" 1
	
.ascii "->R11 $48 offsetof(struct pt_regs, r11)"
# 0 "" 2
	.loc 1 58 2
# 58 "/home/cheyh/projs/MyOS2/mykernel/arch/x86_64/kbuild/asm-offsets_64.c" 1
	
.ascii "->R10 $56 offsetof(struct pt_regs, r10)"
# 0 "" 2
	.loc 1 59 2
# 59 "/home/cheyh/projs/MyOS2/mykernel/arch/x86_64/kbuild/asm-offsets_64.c" 1
	
.ascii "->R9 $64 offsetof(struct pt_regs, r9)"
# 0 "" 2
	.loc 1 60 2
# 60 "/home/cheyh/projs/MyOS2/mykernel/arch/x86_64/kbuild/asm-offsets_64.c" 1
	
.ascii "->R8 $72 offsetof(struct pt_regs, r8)"
# 0 "" 2
	.loc 1 61 2
# 61 "/home/cheyh/projs/MyOS2/mykernel/arch/x86_64/kbuild/asm-offsets_64.c" 1
	
.ascii "->RAX $80 offsetof(struct pt_regs, ax)"
# 0 "" 2
	.loc 1 62 2
# 62 "/home/cheyh/projs/MyOS2/mykernel/arch/x86_64/kbuild/asm-offsets_64.c" 1
	
.ascii "->RCX $88 offsetof(struct pt_regs, cx)"
# 0 "" 2
	.loc 1 63 2
# 63 "/home/cheyh/projs/MyOS2/mykernel/arch/x86_64/kbuild/asm-offsets_64.c" 1
	
.ascii "->RDX $96 offsetof(struct pt_regs, dx)"
# 0 "" 2
	.loc 1 64 2
# 64 "/home/cheyh/projs/MyOS2/mykernel/arch/x86_64/kbuild/asm-offsets_64.c" 1
	
.ascii "->RSI $104 offsetof(struct pt_regs, si)"
# 0 "" 2
	.loc 1 65 2
# 65 "/home/cheyh/projs/MyOS2/mykernel/arch/x86_64/kbuild/asm-offsets_64.c" 1
	
.ascii "->RDI $112 offsetof(struct pt_regs, di)"
# 0 "" 2
	.loc 1 66 2
# 66 "/home/cheyh/projs/MyOS2/mykernel/arch/x86_64/kbuild/asm-offsets_64.c" 1
	
.ascii "->IRQ_NR $120 offsetof(struct pt_regs, irq_nr)"
# 0 "" 2
	.loc 1 67 2
# 67 "/home/cheyh/projs/MyOS2/mykernel/arch/x86_64/kbuild/asm-offsets_64.c" 1
	
.ascii "->ORIG_RAX $128 offsetof(struct pt_regs, orig_ax)"
# 0 "" 2
	.loc 1 68 2
# 68 "/home/cheyh/projs/MyOS2/mykernel/arch/x86_64/kbuild/asm-offsets_64.c" 1
	
.ascii "->RIP $136 offsetof(struct pt_regs, ip)"
# 0 "" 2
	.loc 1 69 2
# 69 "/home/cheyh/projs/MyOS2/mykernel/arch/x86_64/kbuild/asm-offsets_64.c" 1
	
.ascii "->CS $144 offsetof(struct pt_regs, cs)"
# 0 "" 2
	.loc 1 70 2
# 70 "/home/cheyh/projs/MyOS2/mykernel/arch/x86_64/kbuild/asm-offsets_64.c" 1
	
.ascii "->EFLAGS $152 offsetof(struct pt_regs, flags)"
# 0 "" 2
	.loc 1 71 2
# 71 "/home/cheyh/projs/MyOS2/mykernel/arch/x86_64/kbuild/asm-offsets_64.c" 1
	
.ascii "->RSP $160 offsetof(struct pt_regs, sp)"
# 0 "" 2
	.loc 1 72 2
# 72 "/home/cheyh/projs/MyOS2/mykernel/arch/x86_64/kbuild/asm-offsets_64.c" 1
	
.ascii "->SS $168 offsetof(struct pt_regs, ss)"
# 0 "" 2
	.loc 1 74 2
# 74 "/home/cheyh/projs/MyOS2/mykernel/arch/x86_64/kbuild/asm-offsets_64.c" 1
	
.ascii "->"
# 0 "" 2
	.loc 1 85 2
# 85 "/home/cheyh/projs/MyOS2/mykernel/arch/x86_64/kbuild/asm-offsets_64.c" 1
	
.ascii "->"
# 0 "" 2
	.loc 1 91 9
#NO_APP
	movl	$0, %eax
	.loc 1 92 1
	popq	%rbp
	.cfi_restore 6
	.cfi_def_cfa 7, 8
	ret
	.cfi_endproc
.LFE131:
	.size	main, .-main
	.section	.text.common,"ax",@progbits
	.type	common, @function
common:
.LFB132:
	.file 2 "/home/cheyh/projs/MyOS2/mykernel/arch/x86_64/kbuild/asm-offsets.c"
	.loc 2 11 1
	.cfi_startproc
	endbr64
	pushq	%rbp
	.cfi_def_cfa_offset 16
	.cfi_offset 6, -16
	movq	%rsp, %rbp
	.cfi_def_cfa_register 6
.L5:
	leaq	.L5(%rip), %rax
	movabsq	$_GLOBAL_OFFSET_TABLE_-.L5, %r11
	addq	%r11, %rax
	.loc 2 12 2
#APP
# 12 "/home/cheyh/projs/MyOS2/mykernel/arch/x86_64/kbuild/asm-offsets.c" 1
	
.ascii "->"
# 0 "" 2
	.loc 2 13 2
# 13 "/home/cheyh/projs/MyOS2/mykernel/arch/x86_64/kbuild/asm-offsets.c" 1
	
.ascii "->TASK_threadsp $352 offsetof(struct task_struct, thread.sp)"
# 0 "" 2
	.loc 2 18 2
# 18 "/home/cheyh/projs/MyOS2/mykernel/arch/x86_64/kbuild/asm-offsets.c" 1
	
.ascii "->"
# 0 "" 2
	.loc 2 78 2
# 78 "/home/cheyh/projs/MyOS2/mykernel/arch/x86_64/kbuild/asm-offsets.c" 1
	
.ascii "->"
# 0 "" 2
	.loc 2 79 2
# 79 "/home/cheyh/projs/MyOS2/mykernel/arch/x86_64/kbuild/asm-offsets.c" 1
	
.ascii "->PTREGS_SIZE $176 sizeof(struct pt_regs)"
# 0 "" 2
	.loc 2 90 2
# 90 "/home/cheyh/projs/MyOS2/mykernel/arch/x86_64/kbuild/asm-offsets.c" 1
	
.ascii "->TSS_sp0 $4 offsetof(struct tss_struct, x86_tss.sp0)"
# 0 "" 2
	.loc 2 91 2
# 91 "/home/cheyh/projs/MyOS2/mykernel/arch/x86_64/kbuild/asm-offsets.c" 1
	
.ascii "->TSS_sp1 $12 offsetof(struct tss_struct, x86_tss.sp1)"
# 0 "" 2
	.loc 2 92 2
# 92 "/home/cheyh/projs/MyOS2/mykernel/arch/x86_64/kbuild/asm-offsets.c" 1
	
.ascii "->TSS_sp2 $20 offsetof(struct tss_struct, x86_tss.sp2)"
# 0 "" 2
	.loc 2 93 2
# 93 "/home/cheyh/projs/MyOS2/mykernel/arch/x86_64/kbuild/asm-offsets.c" 1
	
.ascii "->X86_top_of_stack $24 offsetof(struct pcpu_hot, top_of_stack)"
# 0 "" 2
	.loc 2 94 2
# 94 "/home/cheyh/projs/MyOS2/mykernel/arch/x86_64/kbuild/asm-offsets.c" 1
	
.ascii "->X86_current_task $0 offsetof(struct pcpu_hot, current_task)"
# 0 "" 2
	.loc 2 105 1
#NO_APP
	nop
	popq	%rbp
	.cfi_restore 6
	.cfi_def_cfa 7, 8
	ret
	.cfi_endproc
.LFE132:
	.size	common, .-common
	.text
.Letext0:
	.file 3 "/home/cheyh/projs/MyOS2/mykernel/include/uapi/asm-generic/int-ll64.h"
	.file 4 "/home/cheyh/projs/MyOS2/mykernel/include/linux/kernel/asm-generic/int-ll64.h"
	.file 5 "/home/cheyh/projs/MyOS2/mykernel/include/uapi/asm-generic/posix_types.h"
	.file 6 "/home/cheyh/projs/MyOS2/mykernel/include/linux/kernel/types.h"
	.file 7 "/home/cheyh/projs/MyOS2/mykernel/sched/sched_type_declaration.h"
	.file 8 "/home/cheyh/projs/MyOS2/mykernel/include/linux/sched/signal.h"
	.file 9 "/home/cheyh/projs/MyOS2/mykernel/include/uapi/linux/resource.h"
	.file 10 "/home/cheyh/projs/MyOS2/mykernel/arch/x86_64/sched/sched_type_declaration_arch.h"
	.file 11 "/home/cheyh/projs/MyOS2/mykernel/sched/task/task_types.h"
	.file 12 "/home/cheyh/projs/MyOS2/mykernel/arch/x86_64/include/asm/ptrace.h"
	.file 13 "/home/cheyh/projs/MyOS2/mykernel/arch/x86_64/sched/context/thread_info_types_arch.h"
	.file 14 "/home/cheyh/projs/MyOS2/mykernel/arch/x86_64/lock_IPC/atomic/../lock_ipc_type_declaration_arch.h"
	.file 15 "/home/cheyh/projs/MyOS2/mykernel/arch/x86_64/lock_IPC/atomic/atomic_types_arch.h"
	.file 16 "/home/cheyh/projs/MyOS2/mykernel/arch/x86_64/lock_IPC/spinlock/spinlock_types_arch.h"
	.file 17 "/home/cheyh/projs/MyOS2/mykernel/lock_IPC/lock_ipc_type_declaration.h"
	.file 18 "/home/cheyh/projs/MyOS2/mykernel/lib/lib_type_declaration.h"
	.file 19 "/home/cheyh/projs/MyOS2/mykernel/lib/list/double_list_types.h"
	.file 20 "/home/cheyh/projs/MyOS2/mykernel/mm/mm_type_declaration.h"
	.file 21 "/home/cheyh/projs/MyOS2/mykernel/arch/x86_64/mm/mm_type_declaration_arch.h"
	.file 22 "/home/cheyh/projs/MyOS2/mykernel/arch/x86_64/mm/pgtable/pgtable_types_arch.h"
	.file 23 "/home/cheyh/projs/MyOS2/mykernel/mm/fault/fault_types.h"
	.file 24 "/home/cheyh/projs/MyOS2/mykernel/mm/misc/mm_misc_types.h"
	.file 25 "/home/cheyh/projs/MyOS2/mykernel/mm/page_alloc/buddy_types.h"
	.file 26 "/home/cheyh/projs/MyOS2/mykernel/mm/page_alloc/page-flags_types.h"
	.file 27 "/home/cheyh/projs/MyOS2/mykernel/mm/vm_map/vm_map_types.h"
	.file 28 "/home/cheyh/projs/MyOS2/mykernel/include/linux/fs/vfs_s_defs.h"
	.file 29 "/home/cheyh/projs/MyOS2/mykernel/include/linux/fs/path.h"
	.file 30 "/home/cheyh/projs/MyOS2/mykernel/arch/x86_64/include/asm/current.h"
	.file 31 "/home/cheyh/projs/MyOS2/mykernel/arch/x86_64/processor/processor_types_arch.h"
	.file 32 "/home/cheyh/projs/MyOS2/mykernel/include/linux/kernel/swait.h"
	.file 33 "/home/cheyh/projs/MyOS2/mykernel/include/linux/kernel/completion.h"
	.file 34 "/home/cheyh/projs/MyOS2/mykernel/sched/misc/fs_struct_types.h"
	.file 35 "/home/cheyh/projs/MyOS2/mykernel/sched/scheduler/scheduler_types.h"
	.file 36 "/home/cheyh/projs/MyOS2/mykernel/sched/task/pid_types.h"
	.section	.note.GNU-stack,"",@progbits
	.section	.note.gnu.property,"a"
	.align 8
	.long	1f - 0f
	.long	4f - 1f
	.long	5
0:
	.string	"GNU"
1:
	.align 8
	.long	0xc0000002
	.long	3f - 2f
2:
	.long	0x3
3:
	.align 8
4:
